target datalayout = "e-m:e-p270:32:32-p271:32:32-p272:64:64-i64:64-i128:128-f80:128-n8:16:32:64-S128"
target triple = "x86_64-unknown-linux-gnu"

%"class.icu_75::numparse::impl::ArraySeriesMatcher" = type <{ %"class.icu_75::numparse::impl::SeriesMatcher", %"class.icu_75::MaybeStackArray", i32, [4 x i8] }>
%"class.icu_75::numparse::impl::SeriesMatcher" = type { %"class.icu_75::numparse::impl::CompositionMatcher" }
%"class.icu_75::numparse::impl::CompositionMatcher" = type { %"class.icu_75::numparse::impl::NumberParseMatcher" }
%"class.icu_75::numparse::impl::NumberParseMatcher" = type { ptr }
%"class.icu_75::MaybeStackArray" = type { ptr, i32, i8, [3 x ptr] }

; Function Attrs: mustprogress nounwind uwtable
define linkonce_odr noundef ptr @_ZNK6icu_7515MaybeStackArrayIPKNS_8numparse4impl18NumberParseMatcherELi3EE8getAliasEv(ptr noundef nonnull align 8 dereferenceable(40) %this) #2 comdat align 2 {
entry:
  %this.addr = alloca ptr, align 8
  store ptr %this, ptr %this.addr, align 8
  %this1 = load ptr, ptr %this.addr, align 8
  %ptr = getelementptr inbounds %"class.icu_75::MaybeStackArray", ptr %this1, i32 0, i32 0
  %0 = load ptr, ptr %ptr, align 8
  ret ptr %0
}

; Function Attrs: mustprogress uwtable
define noundef ptr @_ZNK6icu_758numparse4impl18ArraySeriesMatcher3endEv(ptr noundef nonnull align 8 dereferenceable(52) %this) unnamed_addr #0 align 2 {
entry:
  %this.addr = alloca ptr, align 8
  store ptr %this, ptr %this.addr, align 8
  %this1 = load ptr, ptr %this.addr, align 8
  %fMatchers = getelementptr inbounds %"class.icu_75::numparse::impl::ArraySeriesMatcher", ptr %this1, i32 0, i32 1
  %call = call noundef ptr @_ZNK6icu_7515MaybeStackArrayIPKNS_8numparse4impl18NumberParseMatcherELi3EE8getAliasEv(ptr noundef nonnull align 8 dereferenceable(40) %fMatchers)
  %fMatchersLen = getelementptr inbounds %"class.icu_75::numparse::impl::ArraySeriesMatcher", ptr %this1, i32 0, i32 2
  %0 = load i32, ptr %fMatchersLen, align 8
  %idx.ext = sext i32 %0 to i64
  %add.ptr = getelementptr inbounds ptr, ptr %call, i64 %idx.ext
  ret ptr %add.ptr
}