; Function Attrs: mustprogress nofree norecurse nosync nounwind willreturn memory(argmem: read) uwtable
define noundef ptr @_ZNK6icu_758numparse4impl18ArraySeriesMatcher3endEv(ptr nocapture noundef nonnull readonly align 8 dereferenceable(52) %this) unnamed_addr #5 align 2 {
entry:
  %fMatchers = getelementptr inbounds i8, ptr %this, i64 8
  %0 = load ptr, ptr %fMatchers, align 8
  %fMatchersLen = getelementptr inbounds i8, ptr %this, i64 48
  %1 = load i32, ptr %fMatchersLen, align 8
  %idx.ext = sext i32 %1 to i64
  %add.ptr = getelementptr inbounds ptr, ptr %0, i64 %idx.ext
  ret ptr %add.ptr
}